; Function Attrs: mustprogress nofree norecurse nounwind willreturn memory(argmem: readwrite) uwtable
define hidden void @_mi_stat_counter_increase(ptr noundef %0, i64 noundef %1) local_unnamed_addr #0 {
  %3 = icmp uge ptr %0, @_mi_stats_main
  %4 = icmp ult ptr %0, getelementptr inbounds nuw (i8, ptr @_mi_stats_main, i64 704)
  %5 = select i1 %3, i1 %4, i1 false
  %6 = getelementptr inbounds nuw i8, ptr %0, i64 8
  br i1 %5, label %7, label %10

7:                                                ; preds = %2
  %8 = atomicrmw add ptr %6, i64 1 monotonic, align 8
  %9 = atomicrmw add ptr %0, i64 %1 monotonic, align 8
  br label %15

10:                                               ; preds = %2
  %11 = load i64, ptr %6, align 8, !tbaa !3
  %12 = add nsw i64 %11, 1
  store i64 %12, ptr %6, align 8, !tbaa !3
  %13 = load i64, ptr %0, align 8, !tbaa !8
  %14 = add i64 %13, %1
  store i64 %14, ptr %0, align 8, !tbaa !8
  br label %15

15:                                               ; preds = %10, %7
  ret void
}